; Function Attrs: mustprogress nofree norecurse nosync nounwind memory(read, argmem: readwrite, inaccessiblemem: none) uwtable
define hidden void @_ZN7nmethod11copy_valuesEP13GrowableArrayIP8MetadataE(ptr nocapture noundef nonnull align 8 dereferenceable(214) %0, ptr nocapture noundef readonly %1) local_unnamed_addr #10 align 2 {
  %3 = load i32, ptr %1, align 4
  %4 = getelementptr inbounds i8, ptr %0, i64 40
  %5 = load i32, ptr %4, align 8
  %6 = sext i32 %5 to i64
  %7 = getelementptr inbounds i8, ptr %0, i64 %6
  %8 = getelementptr inbounds i8, ptr %0, i64 180
  %9 = load i16, ptr %8, align 4
  %10 = zext i16 %9 to i64
  %11 = getelementptr inbounds i8, ptr %7, i64 %10
  %12 = icmp sgt i32 %3, 0
  br i1 %12, label %.lr.ph, label %._crit_edge

.lr.ph:                                           ; preds = %2
  %13 = getelementptr inbounds i8, ptr %1, i64 8
  %wide.trip.count = zext nneg i32 %3 to i64
  br label %14

14:                                               ; preds = %.lr.ph, %14
  %indvars.iv = phi i64 [ 0, %.lr.ph ], [ %indvars.iv.next, %14 ]
  %15 = load ptr, ptr %13, align 8
  %16 = getelementptr inbounds ptr, ptr %15, i64 %indvars.iv
  %17 = load ptr, ptr %16, align 8
  %18 = getelementptr inbounds ptr, ptr %11, i64 %indvars.iv
  store ptr %17, ptr %18, align 8
  %indvars.iv.next = add nuw nsw i64 %indvars.iv, 1
  %exitcond.not = icmp eq i64 %indvars.iv.next, %wide.trip.count
  br i1 %exitcond.not, label %._crit_edge, label %14, !llvm.loop !69

._crit_edge:                                      ; preds = %14, %2
  ret void
}